target datalayout = "e-m:e-p270:32:32-p271:32:32-p272:64:64-i64:64-i128:128-f80:128-n8:16:32:64-S128"
target triple = "x86_64-pc-linux-gnu"

%struct.SDL_AtomicInt = type { i32 }
%struct.SDL_HIDAPI_Device = type { ptr, ptr, ptr, ptr, i16, i16, i16, ptr, %struct.SDL_GUID, i32, i32, i32, i32, i16, i16, i8, i32, i32, i32, ptr, ptr, ptr, ptr, %struct.SDL_AtomicInt, i32, ptr, i8, i8, i8, ptr, i32, ptr, ptr }
%struct.SDL_GUID = type { [16 x i8] }

@SDL_HIDAPI_devices = internal global ptr null, align 8

; Function Attrs: nounwind uwtable
define hidden void @HIDAPI_DisconnectBluetoothDevice(ptr noundef %0) #0 {
  %2 = alloca ptr, align 8
  %3 = alloca ptr, align 8
  %4 = alloca i32, align 4
  store ptr %0, ptr %2, align 8
  call void @llvm.lifetime.start.p0(i64 8, ptr %3) #7
  call void @SDL_AssertJoysticksLocked()
  %5 = load ptr, ptr %2, align 8
  %6 = icmp ne ptr %5, null
  br i1 %6, label %8, label %7

7:                                                ; preds = %1
  store i32 1, ptr %4, align 4
  br label %69

8:                                                ; preds = %1
  %9 = load ptr, ptr @SDL_HIDAPI_devices, align 8
  store ptr %9, ptr %3, align 8
  br label %10

10:                                               ; preds = %64, %8
  %11 = load ptr, ptr %3, align 8
  %12 = icmp ne ptr %11, null
  br i1 %12, label %13, label %68

13:                                               ; preds = %10
  %14 = load ptr, ptr %3, align 8
  %15 = getelementptr inbounds nuw %struct.SDL_HIDAPI_Device, ptr %14, i32 0, i32 19
  %16 = load ptr, ptr %15, align 8
  %17 = icmp ne ptr %16, null
  br i1 %17, label %18, label %23

18:                                               ; preds = %13
  %19 = load ptr, ptr %3, align 8
  %20 = getelementptr inbounds nuw %struct.SDL_HIDAPI_Device, ptr %19, i32 0, i32 28
  %21 = load i8, ptr %20, align 2, !range !6, !noundef !7
  %22 = trunc i8 %21 to i1
  br i1 %22, label %23, label %24

23:                                               ; preds = %18, %13
  br label %64

24:                                               ; preds = %18
  %25 = load ptr, ptr %3, align 8
  %26 = getelementptr inbounds nuw %struct.SDL_HIDAPI_Device, ptr %25, i32 0, i32 15
  %27 = load i8, ptr %26, align 4, !range !6, !noundef !7
  %28 = trunc i8 %27 to i1
  br i1 %28, label %30, label %29

29:                                               ; preds = %24
  br label %64

30:                                               ; preds = %24
  %31 = load ptr, ptr %3, align 8
  %32 = getelementptr inbounds nuw %struct.SDL_HIDAPI_Device, ptr %31, i32 0, i32 7
  %33 = load ptr, ptr %32, align 8
  %34 = icmp ne ptr %33, null
  br i1 %34, label %35, label %63

35:                                               ; preds = %30
  %36 = load ptr, ptr %2, align 8
  %37 = load ptr, ptr %3, align 8
  %38 = getelementptr inbounds nuw %struct.SDL_HIDAPI_Device, ptr %37, i32 0, i32 7
  %39 = load ptr, ptr %38, align 8
  %40 = call i32 @SDL_strcmp_REAL(ptr noundef %36, ptr noundef %39)
  %41 = icmp eq i32 %40, 0
  br i1 %41, label %42, label %63

42:                                               ; preds = %35
  br label %43

43:                                               ; preds = %55, %42
  %44 = load ptr, ptr %3, align 8
  %45 = getelementptr inbounds nuw %struct.SDL_HIDAPI_Device, ptr %44, i32 0, i32 24
  %46 = load i32, ptr %45, align 4
  %47 = icmp ne i32 %46, 0
  br i1 %47, label %48, label %53

48:                                               ; preds = %43
  %49 = load ptr, ptr %3, align 8
  %50 = getelementptr inbounds nuw %struct.SDL_HIDAPI_Device, ptr %49, i32 0, i32 25
  %51 = load ptr, ptr %50, align 8
  %52 = icmp ne ptr %51, null
  br label %53

53:                                               ; preds = %48, %43
  %54 = phi i1 [ false, %43 ], [ %52, %48 ]
  br i1 %54, label %55, label %62

55:                                               ; preds = %53
  %56 = load ptr, ptr %3, align 8
  %57 = load ptr, ptr %3, align 8
  %58 = getelementptr inbounds nuw %struct.SDL_HIDAPI_Device, ptr %57, i32 0, i32 25
  %59 = load ptr, ptr %58, align 8
  %60 = getelementptr inbounds i32, ptr %59, i64 0
  %61 = load i32, ptr %60, align 4
  call void @HIDAPI_JoystickDisconnected(ptr noundef %56, i32 noundef %61)
  br label %43, !llvm.loop !9

62:                                               ; preds = %53
  br label %63

63:                                               ; preds = %62, %35, %30
  br label %64

64:                                               ; preds = %63, %29, %23
  %65 = load ptr, ptr %3, align 8
  %66 = getelementptr inbounds nuw %struct.SDL_HIDAPI_Device, ptr %65, i32 0, i32 32
  %67 = load ptr, ptr %66, align 8
  store ptr %67, ptr %3, align 8
  br label %10, !llvm.loop !10

68:                                               ; preds = %10
  store i32 0, ptr %4, align 4
  br label %69

69:                                               ; preds = %68, %7
  call void @llvm.lifetime.end.p0(i64 8, ptr %3) #7
  %70 = load i32, ptr %4, align 4
  switch i32 %70, label %72 [
    i32 0, label %71
    i32 1, label %71
  ]

71:                                               ; preds = %69, %69
  ret void

72:                                               ; preds = %69
  unreachable
}