; Function Attrs: nounwind uwtable
define hidden void @HIDAPI_DisconnectBluetoothDevice(ptr noundef %0) local_unnamed_addr #0 {
  tail call void @SDL_AssertJoysticksLocked() #9
  %.not = icmp eq ptr %0, null
  %.024 = load ptr, ptr @SDL_HIDAPI_devices, align 8
  %.not1625 = icmp eq ptr %.024, null
  %or.cond = select i1 %.not, i1 true, i1 %.not1625
  br i1 %or.cond, label %.loopexit, label %.lr.ph27

.lr.ph27:                                         ; preds = %1, %.critedge
  %.026 = phi ptr [ %.0, %.critedge ], [ %.024, %1 ]
  %2 = getelementptr inbounds nuw i8, ptr %.026, i64 104
  %3 = load ptr, ptr %2, align 8
  %.not17 = icmp eq ptr %3, null
  br i1 %.not17, label %.critedge, label %4

4:                                                ; preds = %.lr.ph27
  %5 = getelementptr inbounds nuw i8, ptr %.026, i64 154
  %6 = load i8, ptr %5, align 2, !range !6, !noundef !7
  %7 = trunc nuw i8 %6 to i1
  br i1 %7, label %.critedge, label %8

8:                                                ; preds = %4
  %9 = getelementptr inbounds nuw i8, ptr %.026, i64 84
  %10 = load i8, ptr %9, align 4, !range !6, !noundef !7
  %11 = trunc nuw i8 %10 to i1
  br i1 %11, label %12, label %.critedge

12:                                               ; preds = %8
  %13 = getelementptr inbounds nuw i8, ptr %.026, i64 40
  %14 = load ptr, ptr %13, align 8
  %.not18 = icmp eq ptr %14, null
  br i1 %.not18, label %.critedge, label %15

15:                                               ; preds = %12
  %16 = tail call i32 @SDL_strcmp_REAL(ptr noundef nonnull %0, ptr noundef nonnull %14) #9
  %17 = icmp eq i32 %16, 0
  br i1 %17, label %.preheader, label %.critedge

.preheader:                                       ; preds = %15
  %18 = getelementptr inbounds nuw i8, ptr %.026, i64 144
  %19 = getelementptr inbounds nuw i8, ptr %.026, i64 140
  %20 = load i32, ptr %19, align 4
  %.not1922 = icmp eq i32 %20, 0
  br i1 %.not1922, label %.critedge, label %.lr.ph

.lr.ph:                                           ; preds = %.preheader, %22
  %21 = load ptr, ptr %18, align 8
  %.not20 = icmp eq ptr %21, null
  br i1 %.not20, label %.critedge, label %22

22:                                               ; preds = %.lr.ph
  %23 = load i32, ptr %21, align 4
  tail call void @HIDAPI_JoystickDisconnected(ptr noundef nonnull %.026, i32 noundef %23)
  %24 = load i32, ptr %19, align 4
  %.not19 = icmp eq i32 %24, 0
  br i1 %.not19, label %.critedge, label %.lr.ph, !llvm.loop !9

.critedge:                                        ; preds = %.lr.ph, %22, %.preheader, %12, %15, %8, %.lr.ph27, %4
  %25 = getelementptr inbounds nuw i8, ptr %.026, i64 184
  %.0 = load ptr, ptr %25, align 8
  %.not16 = icmp eq ptr %.0, null
  br i1 %.not16, label %.loopexit, label %.lr.ph27, !llvm.loop !10

.loopexit:                                        ; preds = %.critedge, %1
  ret void
}